target datalayout = "e-m:e-p270:32:32-p271:32:32-p272:64:64-i64:64-i128:128-f80:128-n8:16:32:64-S128"
target triple = "x86_64-pc-linux-gnu"

%"class.icu_77::UObject" = type { ptr }
%"class.icu_77::UTS46" = type <{ %"class.icu_77::IDNA", ptr, i32, [4 x i8] }>
%"class.icu_77::IDNA" = type { %"class.icu_77::UObject" }

; Function Attrs: mustprogress uwtable
define noundef signext i8 @_ZNK6icu_775UTS4617isLabelOkContextJEPKDsi(ptr noundef nonnull align 8 dereferenceable(20) %0, ptr noundef %1, i32 noundef %2) #1 align 2 {
  %4 = alloca i8, align 1
  %5 = alloca ptr, align 8
  %6 = alloca ptr, align 8
  %7 = alloca i32, align 4
  %8 = alloca i32, align 4
  %9 = alloca i32, align 4
  %10 = alloca i32, align 4
  %11 = alloca i32, align 4
  %12 = alloca i32, align 4
  %13 = alloca i32, align 4
  %14 = alloca i32, align 4
  %15 = alloca i32, align 4
  store ptr %0, ptr %5, align 8, !tbaa !34
  store ptr %1, ptr %6, align 8, !tbaa !42
  store i32 %2, ptr %7, align 4, !tbaa !14
  %16 = load ptr, ptr %5, align 8
  call void @llvm.lifetime.start.p0(i64 4, ptr %8) #13
  store i32 0, ptr %8, align 4, !tbaa !14
  br label %17

17:                                               ; preds = %233, %3
  %18 = load i32, ptr %8, align 4, !tbaa !14
  %19 = load i32, ptr %7, align 4, !tbaa !14
  %20 = icmp slt i32 %18, %19
  br i1 %20, label %22, label %21

21:                                               ; preds = %17
  store i32 2, ptr %9, align 4
  br label %236

22:                                               ; preds = %17
  %23 = load ptr, ptr %6, align 8, !tbaa !42
  %24 = load i32, ptr %8, align 4, !tbaa !14
  %25 = sext i32 %24 to i64
  %26 = getelementptr inbounds i16, ptr %23, i64 %25
  %27 = load i16, ptr %26, align 2, !tbaa !47
  %28 = zext i16 %27 to i32
  %29 = icmp eq i32 %28, 8204
  br i1 %29, label %30, label %177

30:                                               ; preds = %22
  %31 = load i32, ptr %8, align 4, !tbaa !14
  %32 = icmp eq i32 %31, 0
  br i1 %32, label %33, label %34

33:                                               ; preds = %30
  store i8 0, ptr %4, align 1
  store i32 1, ptr %9, align 4
  br label %236

34:                                               ; preds = %30
  call void @llvm.lifetime.start.p0(i64 4, ptr %10) #13
  call void @llvm.lifetime.start.p0(i64 4, ptr %11) #13
  %35 = load i32, ptr %8, align 4, !tbaa !14
  store i32 %35, ptr %11, align 4, !tbaa !14
  br label %36

36:                                               ; preds = %34
  %37 = load ptr, ptr %6, align 8, !tbaa !42
  %38 = load i32, ptr %11, align 4, !tbaa !14
  %39 = add nsw i32 %38, -1
  store i32 %39, ptr %11, align 4, !tbaa !14
  %40 = sext i32 %39 to i64
  %41 = getelementptr inbounds i16, ptr %37, i64 %40
  %42 = load i16, ptr %41, align 2, !tbaa !47
  %43 = zext i16 %42 to i32
  store i32 %43, ptr %10, align 4, !tbaa !14
  %44 = load i32, ptr %10, align 4, !tbaa !14
  %45 = and i32 %44, -1024
  %46 = icmp eq i32 %45, 56320
  br i1 %46, label %47, label %59

47:                                               ; preds = %36
  %48 = load ptr, ptr %6, align 8, !tbaa !42
  %49 = load i32, ptr %11, align 4, !tbaa !14
  %50 = add nsw i32 %49, -1
  store i32 %50, ptr %11, align 4, !tbaa !14
  %51 = sext i32 %50 to i64
  %52 = getelementptr inbounds i16, ptr %48, i64 %51
  %53 = load i16, ptr %52, align 2, !tbaa !47
  %54 = zext i16 %53 to i32
  %55 = shl i32 %54, 10
  %56 = load i32, ptr %10, align 4, !tbaa !14
  %57 = add nsw i32 %55, %56
  %58 = sub nsw i32 %57, 56613888
  store i32 %58, ptr %10, align 4, !tbaa !14
  br label %59

59:                                               ; preds = %47, %36
  br label %60

60:                                               ; preds = %59
  br label %61

61:                                               ; preds = %60
  %62 = getelementptr inbounds nuw %"class.icu_77::UTS46", ptr %16, i32 0, i32 1
  %63 = load ptr, ptr %62, align 8, !tbaa !56
  %64 = load i32, ptr %10, align 4, !tbaa !14
  %65 = load ptr, ptr %63, align 8, !tbaa !29
  %66 = getelementptr inbounds ptr, ptr %65, i64 10
  %67 = load ptr, ptr %66, align 8
  %68 = call noundef zeroext i8 %67(ptr noundef nonnull align 8 dereferenceable(8) %63, i32 noundef %64)
  %69 = zext i8 %68 to i32
  %70 = icmp eq i32 %69, 9
  br i1 %70, label %71, label %72

71:                                               ; preds = %61
  store i32 4, ptr %9, align 4
  br label %174

72:                                               ; preds = %61
  br label %73

73:                                               ; preds = %120, %72
  call void @llvm.lifetime.start.p0(i64 4, ptr %12) #13
  %74 = load i32, ptr %10, align 4, !tbaa !14
  %75 = call i32 @ubidi_getJoiningType_77(i32 noundef %74)
  store i32 %75, ptr %12, align 4, !tbaa !72
  %76 = load i32, ptr %12, align 4, !tbaa !72
  %77 = icmp eq i32 %76, 5
  br i1 %77, label %78, label %109

78:                                               ; preds = %73
  %79 = load i32, ptr %11, align 4, !tbaa !14
  %80 = icmp eq i32 %79, 0
  br i1 %80, label %81, label %82

81:                                               ; preds = %78
  store i8 0, ptr %4, align 1
  store i32 1, ptr %9, align 4
  br label %118

82:                                               ; preds = %78
  br label %83

83:                                               ; preds = %82
  %84 = load ptr, ptr %6, align 8, !tbaa !42
  %85 = load i32, ptr %11, align 4, !tbaa !14
  %86 = add nsw i32 %85, -1
  store i32 %86, ptr %11, align 4, !tbaa !14
  %87 = sext i32 %86 to i64
  %88 = getelementptr inbounds i16, ptr %84, i64 %87
  %89 = load i16, ptr %88, align 2, !tbaa !47
  %90 = zext i16 %89 to i32
  store i32 %90, ptr %10, align 4, !tbaa !14
  %91 = load i32, ptr %10, align 4, !tbaa !14
  %92 = and i32 %91, -1024
  %93 = icmp eq i32 %92, 56320
  br i1 %93, label %94, label %106

94:                                               ; preds = %83
  %95 = load ptr, ptr %6, align 8, !tbaa !42
  %96 = load i32, ptr %11, align 4, !tbaa !14
  %97 = add nsw i32 %96, -1
  store i32 %97, ptr %11, align 4, !tbaa !14
  %98 = sext i32 %97 to i64
  %99 = getelementptr inbounds i16, ptr %95, i64 %98
  %100 = load i16, ptr %99, align 2, !tbaa !47
  %101 = zext i16 %100 to i32
  %102 = shl i32 %101, 10
  %103 = load i32, ptr %10, align 4, !tbaa !14
  %104 = add nsw i32 %102, %103
  %105 = sub nsw i32 %104, 56613888
  store i32 %105, ptr %10, align 4, !tbaa !14
  br label %106

106:                                              ; preds = %94, %83
  br label %107

107:                                              ; preds = %106
  br label %108

108:                                              ; preds = %107
  br label %117

109:                                              ; preds = %73
  %110 = load i32, ptr %12, align 4, !tbaa !72
  %111 = icmp eq i32 %110, 3
  br i1 %111, label %115, label %112

112:                                              ; preds = %109
  %113 = load i32, ptr %12, align 4, !tbaa !72
  %114 = icmp eq i32 %113, 2
  br i1 %114, label %115, label %116

115:                                              ; preds = %112, %109
  store i32 7, ptr %9, align 4
  br label %118

116:                                              ; preds = %112
  store i8 0, ptr %4, align 1
  store i32 1, ptr %9, align 4
  br label %118

117:                                              ; preds = %108
  store i32 0, ptr %9, align 4
  br label %118

118:                                              ; preds = %117, %116, %115, %81
  call void @llvm.lifetime.end.p0(i64 4, ptr %12) #13
  %119 = load i32, ptr %9, align 4
  switch i32 %119, label %174 [
    i32 0, label %120
    i32 7, label %121
  ]

120:                                              ; preds = %118
  br label %73, !llvm.loop !74

121:                                              ; preds = %118
  %122 = load i32, ptr %8, align 4, !tbaa !14
  %123 = add nsw i32 %122, 1
  store i32 %123, ptr %11, align 4, !tbaa !14
  br label %124

124:                                              ; preds = %172, %121
  %125 = load i32, ptr %11, align 4, !tbaa !14
  %126 = load i32, ptr %7, align 4, !tbaa !14
  %127 = icmp eq i32 %125, %126
  br i1 %127, label %128, label %129

128:                                              ; preds = %124
  store i8 0, ptr %4, align 1
  store i32 1, ptr %9, align 4
  br label %174

129:                                              ; preds = %124
  br label %130

130:                                              ; preds = %129
  %131 = load ptr, ptr %6, align 8, !tbaa !42
  %132 = load i32, ptr %11, align 4, !tbaa !14
  %133 = add nsw i32 %132, 1
  store i32 %133, ptr %11, align 4, !tbaa !14
  %134 = sext i32 %132 to i64
  %135 = getelementptr inbounds i16, ptr %131, i64 %134
  %136 = load i16, ptr %135, align 2, !tbaa !47
  %137 = zext i16 %136 to i32
  store i32 %137, ptr %10, align 4, !tbaa !14
  %138 = load i32, ptr %10, align 4, !tbaa !14
  %139 = and i32 %138, -1024
  %140 = icmp eq i32 %139, 55296
  br i1 %140, label %141, label %153

141:                                              ; preds = %130
  %142 = load i32, ptr %10, align 4, !tbaa !14
  %143 = shl i32 %142, 10
  %144 = load ptr, ptr %6, align 8, !tbaa !42
  %145 = load i32, ptr %11, align 4, !tbaa !14
  %146 = add nsw i32 %145, 1
  store i32 %146, ptr %11, align 4, !tbaa !14
  %147 = sext i32 %145 to i64
  %148 = getelementptr inbounds i16, ptr %144, i64 %147
  %149 = load i16, ptr %148, align 2, !tbaa !47
  %150 = zext i16 %149 to i32
  %151 = add nsw i32 %143, %150
  %152 = sub nsw i32 %151, 56613888
  store i32 %152, ptr %10, align 4, !tbaa !14
  br label %153

153:                                              ; preds = %141, %130
  br label %154

154:                                              ; preds = %153
  br label %155

155:                                              ; preds = %154
  call void @llvm.lifetime.start.p0(i64 4, ptr %13) #13
  %156 = load i32, ptr %10, align 4, !tbaa !14
  %157 = call i32 @ubidi_getJoiningType_77(i32 noundef %156)
  store i32 %157, ptr %13, align 4, !tbaa !72
  %158 = load i32, ptr %13, align 4, !tbaa !72
  %159 = icmp eq i32 %158, 5
  br i1 %159, label %160, label %161

160:                                              ; preds = %155
  br label %169

161:                                              ; preds = %155
  %162 = load i32, ptr %13, align 4, !tbaa !72
  %163 = icmp eq i32 %162, 4
  br i1 %163, label %167, label %164

164:                                              ; preds = %161
  %165 = load i32, ptr %13, align 4, !tbaa !72
  %166 = icmp eq i32 %165, 2
  br i1 %166, label %167, label %168

167:                                              ; preds = %164, %161
  store i32 11, ptr %9, align 4
  br label %170

168:                                              ; preds = %164
  store i8 0, ptr %4, align 1
  store i32 1, ptr %9, align 4
  br label %170

169:                                              ; preds = %160
  store i32 0, ptr %9, align 4
  br label %170

170:                                              ; preds = %169, %168, %167
  call void @llvm.lifetime.end.p0(i64 4, ptr %13) #13
  %171 = load i32, ptr %9, align 4
  switch i32 %171, label %174 [
    i32 0, label %172
    i32 11, label %173
  ]

172:                                              ; preds = %170
  br label %124, !llvm.loop !75

173:                                              ; preds = %170
  store i32 0, ptr %9, align 4
  br label %174

174:                                              ; preds = %173, %170, %128, %118, %71
  call void @llvm.lifetime.end.p0(i64 4, ptr %11) #13
  call void @llvm.lifetime.end.p0(i64 4, ptr %10) #13
  %175 = load i32, ptr %9, align 4
  switch i32 %175, label %236 [
    i32 0, label %176
    i32 4, label %233
  ]

176:                                              ; preds = %174
  br label %232

177:                                              ; preds = %22
  %178 = load ptr, ptr %6, align 8, !tbaa !42
  %179 = load i32, ptr %8, align 4, !tbaa !14
  %180 = sext i32 %179 to i64
  %181 = getelementptr inbounds i16, ptr %178, i64 %180
  %182 = load i16, ptr %181, align 2, !tbaa !47
  %183 = zext i16 %182 to i32
  %184 = icmp eq i32 %183, 8205
  br i1 %184, label %185, label %231

185:                                              ; preds = %177
  %186 = load i32, ptr %8, align 4, !tbaa !14
  %187 = icmp eq i32 %186, 0
  br i1 %187, label %188, label %189

188:                                              ; preds = %185
  store i8 0, ptr %4, align 1
  store i32 1, ptr %9, align 4
  br label %236

189:                                              ; preds = %185
  call void @llvm.lifetime.start.p0(i64 4, ptr %14) #13
  call void @llvm.lifetime.start.p0(i64 4, ptr %15) #13
  %190 = load i32, ptr %8, align 4, !tbaa !14
  store i32 %190, ptr %15, align 4, !tbaa !14
  br label %191

191:                                              ; preds = %189
  %192 = load ptr, ptr %6, align 8, !tbaa !42
  %193 = load i32, ptr %15, align 4, !tbaa !14
  %194 = add nsw i32 %193, -1
  store i32 %194, ptr %15, align 4, !tbaa !14
  %195 = sext i32 %194 to i64
  %196 = getelementptr inbounds i16, ptr %192, i64 %195
  %197 = load i16, ptr %196, align 2, !tbaa !47
  %198 = zext i16 %197 to i32
  store i32 %198, ptr %14, align 4, !tbaa !14
  %199 = load i32, ptr %14, align 4, !tbaa !14
  %200 = and i32 %199, -1024
  %201 = icmp eq i32 %200, 56320
  br i1 %201, label %202, label %214

202:                                              ; preds = %191
  %203 = load ptr, ptr %6, align 8, !tbaa !42
  %204 = load i32, ptr %15, align 4, !tbaa !14
  %205 = add nsw i32 %204, -1
  store i32 %205, ptr %15, align 4, !tbaa !14
  %206 = sext i32 %205 to i64
  %207 = getelementptr inbounds i16, ptr %203, i64 %206
  %208 = load i16, ptr %207, align 2, !tbaa !47
  %209 = zext i16 %208 to i32
  %210 = shl i32 %209, 10
  %211 = load i32, ptr %14, align 4, !tbaa !14
  %212 = add nsw i32 %210, %211
  %213 = sub nsw i32 %212, 56613888
  store i32 %213, ptr %14, align 4, !tbaa !14
  br label %214

214:                                              ; preds = %202, %191
  br label %215

215:                                              ; preds = %214
  br label %216

216:                                              ; preds = %215
  %217 = getelementptr inbounds nuw %"class.icu_77::UTS46", ptr %16, i32 0, i32 1
  %218 = load ptr, ptr %217, align 8, !tbaa !56
  %219 = load i32, ptr %14, align 4, !tbaa !14
  %220 = load ptr, ptr %218, align 8, !tbaa !29
  %221 = getelementptr inbounds ptr, ptr %220, i64 10
  %222 = load ptr, ptr %221, align 8
  %223 = call noundef zeroext i8 %222(ptr noundef nonnull align 8 dereferenceable(8) %218, i32 noundef %219)
  %224 = zext i8 %223 to i32
  %225 = icmp ne i32 %224, 9
  br i1 %225, label %226, label %227

226:                                              ; preds = %216
  store i8 0, ptr %4, align 1
  store i32 1, ptr %9, align 4
  br label %228

227:                                              ; preds = %216
  store i32 0, ptr %9, align 4
  br label %228

228:                                              ; preds = %227, %226
  call void @llvm.lifetime.end.p0(i64 4, ptr %15) #13
  call void @llvm.lifetime.end.p0(i64 4, ptr %14) #13
  %229 = load i32, ptr %9, align 4
  switch i32 %229, label %236 [
    i32 0, label %230
  ]

230:                                              ; preds = %228
  br label %231

231:                                              ; preds = %230, %177
  br label %232

232:                                              ; preds = %231, %176
  br label %233

233:                                              ; preds = %232, %174
  %234 = load i32, ptr %8, align 4, !tbaa !14
  %235 = add nsw i32 %234, 1
  store i32 %235, ptr %8, align 4, !tbaa !14
  br label %17, !llvm.loop !76

236:                                              ; preds = %228, %188, %174, %33, %21
  call void @llvm.lifetime.end.p0(i64 4, ptr %8) #13
  %237 = load i32, ptr %9, align 4
  switch i32 %237, label %241 [
    i32 2, label %238
    i32 1, label %239
  ]

238:                                              ; preds = %236
  store i8 1, ptr %4, align 1
  br label %239

239:                                              ; preds = %238, %236
  %240 = load i8, ptr %4, align 1
  ret i8 %240

241:                                              ; preds = %236
  unreachable
}