; Function Attrs: mustprogress uwtable
define noundef signext range(i8 0, 2) i8 @_ZNK6icu_775UTS4617isLabelOkContextJEPKDsi(ptr noundef nonnull readonly align 8 captures(none) dereferenceable(20) %0, ptr noundef readonly captures(none) %1, i32 noundef %2) local_unnamed_addr #1 align 2 {
  %invariant.gep = getelementptr i8, ptr %1, i64 -2
  %.not97105 = icmp slt i32 %2, 1
  br i1 %.not97105, label %.thread92, label %.lr.ph109

.lr.ph109:                                        ; preds = %3
  %4 = getelementptr inbounds nuw i8, ptr %0, i64 8
  %wide.trip.count = zext nneg i32 %2 to i64
  %invariant.gep126 = getelementptr i8, ptr %1, i64 -2
  br label %5

5:                                                ; preds = %.lr.ph109, %.thread95
  %indvars.iv = phi i64 [ 0, %.lr.ph109 ], [ %indvars.iv.next, %.thread95 ]
  %indvars122 = trunc i64 %indvars.iv to i32
  %6 = getelementptr inbounds nuw i16, ptr %1, i64 %indvars.iv
  %7 = load i16, ptr %6, align 2, !tbaa !27
  switch i16 %7, label %.thread95 [
    i16 8204, label %8
    i16 8205, label %80
  ]

8:                                                ; preds = %5
  %9 = icmp eq i64 %indvars.iv, 0
  br i1 %9, label %.thread92, label %10

10:                                               ; preds = %8
  %11 = add nsw i32 %indvars122, -1
  %gep127 = getelementptr i16, ptr %invariant.gep126, i64 %indvars.iv
  %12 = load i16, ptr %gep127, align 2, !tbaa !27
  %13 = zext i16 %12 to i32
  %14 = and i32 %13, 64512
  %15 = icmp eq i32 %14, 56320
  br i1 %15, label %16, label %25

16:                                               ; preds = %10
  %17 = add nsw i64 %indvars.iv, -2
  %18 = getelementptr inbounds i16, ptr %1, i64 %17
  %19 = load i16, ptr %18, align 2, !tbaa !27
  %20 = zext i16 %19 to i32
  %21 = shl nuw nsw i32 %20, 10
  %22 = add nuw nsw i32 %13, -56613888
  %23 = add nsw i32 %22, %21
  %24 = trunc nsw i64 %17 to i32
  br label %25

25:                                               ; preds = %16, %10
  %.066 = phi i32 [ %23, %16 ], [ %13, %10 ]
  %.060 = phi i32 [ %24, %16 ], [ %11, %10 ]
  %26 = load ptr, ptr %4, align 8, !tbaa !35
  %27 = load ptr, ptr %26, align 8, !tbaa !15
  %28 = getelementptr inbounds nuw i8, ptr %27, i64 80
  %29 = load ptr, ptr %28, align 8
  %30 = tail call noundef zeroext i8 %29(ptr noundef nonnull align 8 dereferenceable(8) %26, i32 noundef %.066)
  %31 = icmp eq i8 %30, 9
  br i1 %31, label %.thread95, label %.preheader

.preheader:                                       ; preds = %25
  %32 = tail call i32 @ubidi_getJoiningType_77(i32 noundef %.066)
  %33 = icmp eq i32 %32, 5
  br i1 %33, label %.lr.ph, label %._crit_edge

.lr.ph:                                           ; preds = %.preheader, %53
  %.161104 = phi i32 [ %.262, %53 ], [ %.060, %.preheader ]
  %34 = icmp eq i32 %.161104, 0
  br i1 %34, label %.thread92, label %35

35:                                               ; preds = %.lr.ph
  %36 = add nsw i32 %.161104, -1
  %37 = sext i32 %36 to i64
  %38 = getelementptr inbounds i16, ptr %1, i64 %37
  %39 = load i16, ptr %38, align 2, !tbaa !27
  %40 = zext i16 %39 to i32
  %41 = and i32 %40, 64512
  %42 = icmp eq i32 %41, 56320
  br i1 %42, label %43, label %53

43:                                               ; preds = %35
  %44 = add nsw i32 %.161104, -2
  %45 = sext i32 %44 to i64
  %46 = getelementptr inbounds i16, ptr %1, i64 %45
  %47 = load i16, ptr %46, align 2, !tbaa !27
  %48 = zext i16 %47 to i32
  %49 = shl nuw nsw i32 %48, 10
  %50 = add nuw nsw i32 %40, -56613888
  %51 = add nsw i32 %50, %49
  br label %53

._crit_edge:                                      ; preds = %53, %.preheader
  %.lcssa = phi i32 [ %32, %.preheader ], [ %54, %53 ]
  %52 = and i32 %.lcssa, -2
  %or.cond = icmp eq i32 %52, 2
  br i1 %or.cond, label %56, label %.thread92

53:                                               ; preds = %43, %35
  %.268 = phi i32 [ %51, %43 ], [ %40, %35 ]
  %.262 = phi i32 [ %44, %43 ], [ %36, %35 ]
  %54 = tail call i32 @ubidi_getJoiningType_77(i32 noundef %.268)
  %55 = icmp eq i32 %54, 5
  br i1 %55, label %.lr.ph, label %._crit_edge

56:                                               ; preds = %._crit_edge
  %57 = trunc i64 %indvars.iv to i32
  %58 = add i32 %57, 1
  br label %59

59:                                               ; preds = %78, %56
  %.464 = phi i32 [ %58, %56 ], [ %.565, %78 ]
  %60 = icmp eq i32 %.464, %2
  br i1 %60, label %.thread92, label %61

61:                                               ; preds = %59
  %62 = add nsw i32 %.464, 1
  %63 = sext i32 %.464 to i64
  %64 = getelementptr inbounds i16, ptr %1, i64 %63
  %65 = load i16, ptr %64, align 2, !tbaa !27
  %66 = zext i16 %65 to i32
  %67 = and i32 %66, 64512
  %68 = icmp eq i32 %67, 55296
  br i1 %68, label %69, label %78

69:                                               ; preds = %61
  %70 = shl nuw nsw i32 %66, 10
  %71 = add nsw i32 %.464, 2
  %72 = sext i32 %62 to i64
  %73 = getelementptr inbounds i16, ptr %1, i64 %72
  %74 = load i16, ptr %73, align 2, !tbaa !27
  %75 = zext i16 %74 to i32
  %76 = add nsw i32 %70, -56613888
  %77 = add nuw nsw i32 %76, %75
  br label %78

78:                                               ; preds = %69, %61
  %.470 = phi i32 [ %77, %69 ], [ %66, %61 ]
  %.565 = phi i32 [ %71, %69 ], [ %62, %61 ]
  %79 = tail call i32 @ubidi_getJoiningType_77(i32 noundef %.470)
  switch i32 %79, label %.thread92 [
    i32 5, label %59
    i32 4, label %.thread95
    i32 2, label %.thread95
  ]

80:                                               ; preds = %5
  %81 = icmp eq i64 %indvars.iv, 0
  br i1 %81, label %.thread92, label %82

82:                                               ; preds = %80
  %gep = getelementptr i16, ptr %invariant.gep, i64 %indvars.iv
  %83 = load i16, ptr %gep, align 2, !tbaa !27
  %84 = zext i16 %83 to i32
  %85 = and i32 %84, 64512
  %86 = icmp eq i32 %85, 56320
  br i1 %86, label %87, label %94

87:                                               ; preds = %82
  %88 = getelementptr i8, ptr %6, i64 -4
  %89 = load i16, ptr %88, align 2, !tbaa !27
  %90 = zext i16 %89 to i32
  %91 = shl nuw nsw i32 %90, 10
  %92 = add nuw nsw i32 %84, -56613888
  %93 = add nsw i32 %92, %91
  br label %94

94:                                               ; preds = %87, %82
  %.0 = phi i32 [ %93, %87 ], [ %84, %82 ]
  %95 = load ptr, ptr %4, align 8, !tbaa !35
  %96 = load ptr, ptr %95, align 8, !tbaa !15
  %97 = getelementptr inbounds nuw i8, ptr %96, i64 80
  %98 = load ptr, ptr %97, align 8
  %99 = tail call noundef zeroext i8 %98(ptr noundef nonnull align 8 dereferenceable(8) %95, i32 noundef %.0)
  %.not = icmp eq i8 %99, 9
  br i1 %.not, label %.thread95, label %.thread92

.thread95:                                        ; preds = %78, %78, %25, %5, %94
  %indvars.iv.next = add nuw nsw i64 %indvars.iv, 1
  %exitcond.not = icmp eq i64 %indvars.iv.next, %wide.trip.count
  br i1 %exitcond.not, label %.thread92, label %5, !llvm.loop !44

.thread92:                                        ; preds = %94, %.thread95, %8, %80, %._crit_edge, %.lr.ph, %78, %59, %3
  %.not97103 = phi i8 [ 1, %3 ], [ 0, %59 ], [ 0, %78 ], [ 0, %.lr.ph ], [ 0, %94 ], [ 1, %.thread95 ], [ 0, %8 ], [ 0, %80 ], [ 0, %._crit_edge ]
  ret i8 %.not97103
}